; Function Attrs: nofree nounwind sspstrong memory(read, inaccessiblemem: none) uwtable
define internal fastcc ptr @get_object_item(ptr noundef readonly %0, ptr noundef readonly %1, i32 noundef %2) unnamed_addr #18 {
  %4 = icmp eq ptr %0, null
  %5 = icmp eq ptr %1, null
  %or.cond = or i1 %4, %5
  br i1 %or.cond, label %.critedge.thread, label %6

6:                                                ; preds = %3
  %7 = getelementptr inbounds nuw i8, ptr %0, i64 16
  %8 = load ptr, ptr %7, align 8, !tbaa !25
  %.not = icmp eq i32 %2, 0
  %.not2350 = icmp eq ptr %8, null
  br i1 %.not, label %.preheader, label %.preheader41

.preheader41:                                     ; preds = %6
  br i1 %.not2350, label %.critedge.thread, label %.lr.ph

.preheader:                                       ; preds = %6
  br i1 %.not2350, label %.critedge.thread, label %.lr.ph52

.lr.ph:                                           ; preds = %.preheader41, %13
  %.049 = phi ptr [ %14, %13 ], [ %8, %.preheader41 ]
  %9 = getelementptr inbounds nuw i8, ptr %.049, i64 56
  %10 = load ptr, ptr %9, align 8, !tbaa !26
  %.not26 = icmp eq ptr %10, null
  br i1 %.not26, label %.critedge.thread35.loopexit54, label %11

11:                                               ; preds = %.lr.ph
  %12 = tail call i32 @strcmp(ptr noundef nonnull dereferenceable(1) %1, ptr noundef nonnull dereferenceable(1) %10) #32
  %.not27 = icmp eq i32 %12, 0
  br i1 %.not27, label %.critedge.thread35.loopexit54, label %13

13:                                               ; preds = %11
  %14 = load ptr, ptr %.049, align 8, !tbaa !24
  %.not25 = icmp eq ptr %14, null
  br i1 %.not25, label %.critedge.thread, label %.lr.ph

.lr.ph52:                                         ; preds = %.preheader, %case_insensitive_strcmp.exit.thread30
  %.251 = phi ptr [ %45, %case_insensitive_strcmp.exit.thread30 ], [ %8, %.preheader ]
  %15 = getelementptr inbounds nuw i8, ptr %.251, i64 56
  %16 = load ptr, ptr %15, align 8, !tbaa !26
  %17 = icmp eq ptr %16, null
  br i1 %17, label %case_insensitive_strcmp.exit.thread30, label %18

18:                                               ; preds = %.lr.ph52
  %19 = icmp eq ptr %1, %16
  br i1 %19, label %.critedge.thread, label %.preheader.i

.preheader.i:                                     ; preds = %18
  %20 = tail call ptr @__ctype_tolower_loc() #33
  %21 = load ptr, ptr %20, align 8, !tbaa !54
  %22 = load i8, ptr %1, align 1, !tbaa !34
  %23 = zext i8 %22 to i64
  %24 = getelementptr inbounds nuw i32, ptr %21, i64 %23
  %25 = load i32, ptr %24, align 4, !tbaa !56
  %26 = load i8, ptr %16, align 1, !tbaa !34
  %27 = zext i8 %26 to i64
  %28 = getelementptr inbounds nuw i32, ptr %21, i64 %27
  %29 = load i32, ptr %28, align 4, !tbaa !56
  %30 = icmp eq i32 %25, %29
  br i1 %30, label %.lr.ph.i, label %case_insensitive_strcmp.exit

.lr.ph.i:                                         ; preds = %.preheader.i, %33
  %31 = phi i8 [ %36, %33 ], [ %22, %.preheader.i ]
  %.02030.i = phi ptr [ %34, %33 ], [ %1, %.preheader.i ]
  %.02129.i = phi ptr [ %35, %33 ], [ %16, %.preheader.i ]
  %32 = icmp eq i8 %31, 0
  br i1 %32, label %.critedge.thread, label %33

33:                                               ; preds = %.lr.ph.i
  %34 = getelementptr inbounds nuw i8, ptr %.02030.i, i64 1
  %35 = getelementptr inbounds nuw i8, ptr %.02129.i, i64 1
  %36 = load i8, ptr %34, align 1, !tbaa !34
  %37 = zext i8 %36 to i64
  %38 = getelementptr inbounds nuw i32, ptr %21, i64 %37
  %39 = load i32, ptr %38, align 4, !tbaa !56
  %40 = load i8, ptr %35, align 1, !tbaa !34
  %41 = zext i8 %40 to i64
  %42 = getelementptr inbounds nuw i32, ptr %21, i64 %41
  %43 = load i32, ptr %42, align 4, !tbaa !56
  %44 = icmp eq i32 %39, %43
  br i1 %44, label %.lr.ph.i, label %case_insensitive_strcmp.exit

case_insensitive_strcmp.exit:                     ; preds = %33, %.preheader.i
  %.lcssa27.i = phi i32 [ %25, %.preheader.i ], [ %39, %33 ]
  %.lcssa.i = phi i32 [ %29, %.preheader.i ], [ %43, %33 ]
  %.not24 = icmp eq i32 %.lcssa27.i, %.lcssa.i
  br i1 %.not24, label %.critedge.thread, label %case_insensitive_strcmp.exit.thread30

case_insensitive_strcmp.exit.thread30:            ; preds = %.lr.ph52, %case_insensitive_strcmp.exit
  %45 = load ptr, ptr %.251, align 8, !tbaa !24
  %.not23 = icmp eq ptr %45, null
  br i1 %.not23, label %.critedge.thread, label %.lr.ph52

.critedge.thread35.loopexit54:                    ; preds = %11, %.lr.ph
  %46 = icmp eq ptr %10, null
  %47 = select i1 %46, ptr null, ptr %.049
  br label %.critedge.thread

.critedge.thread:                                 ; preds = %13, %case_insensitive_strcmp.exit.thread30, %18, %case_insensitive_strcmp.exit, %.lr.ph.i, %.critedge.thread35.loopexit54, %.preheader41, %.preheader, %3
  %.019 = phi ptr [ null, %3 ], [ null, %.preheader ], [ null, %.preheader41 ], [ %47, %.critedge.thread35.loopexit54 ], [ %.251, %.lr.ph.i ], [ null, %case_insensitive_strcmp.exit.thread30 ], [ %.251, %case_insensitive_strcmp.exit ], [ %.251, %18 ], [ null, %13 ]
  ret ptr %.019
}